target datalayout = "e-m:e-p270:32:32-p271:32:32-p272:64:64-i64:64-i128:128-f80:128-n8:16:32:64-S128"
target triple = "x86_64-pc-linux-gnu"

%struct.cli_flagged_sample = type { ptr, [16 x i8], i32, i32, ptr, ptr, ptr }
%struct.cli_stats_sections = type { i64, ptr }

; Function Attrs: nounwind uwtable
define void @free_sample(ptr noundef %0) #0 {
  %2 = alloca ptr, align 8
  %3 = alloca i64, align 8
  store ptr %0, ptr %2, align 8
  %4 = load ptr, ptr %2, align 8
  %5 = getelementptr inbounds %struct.cli_flagged_sample, ptr %4, i32 0, i32 0
  %6 = load ptr, ptr %5, align 8
  %7 = icmp ne ptr %6, null
  br i1 %7, label %8, label %31

8:                                                ; preds = %1
  store i64 0, ptr %3, align 8
  br label %9

9:                                                ; preds = %24, %8
  %10 = load ptr, ptr %2, align 8
  %11 = getelementptr inbounds %struct.cli_flagged_sample, ptr %10, i32 0, i32 0
  %12 = load ptr, ptr %11, align 8
  %13 = load i64, ptr %3, align 8
  %14 = getelementptr inbounds ptr, ptr %12, i64 %13
  %15 = load ptr, ptr %14, align 8
  %16 = icmp ne ptr %15, null
  br i1 %16, label %17, label %27

17:                                               ; preds = %9
  %18 = load ptr, ptr %2, align 8
  %19 = getelementptr inbounds %struct.cli_flagged_sample, ptr %18, i32 0, i32 0
  %20 = load ptr, ptr %19, align 8
  %21 = load i64, ptr %3, align 8
  %22 = getelementptr inbounds ptr, ptr %20, i64 %21
  %23 = load ptr, ptr %22, align 8
  call void @free(ptr noundef %23) #7
  br label %24

24:                                               ; preds = %17
  %25 = load i64, ptr %3, align 8
  %26 = add i64 %25, 1
  store i64 %26, ptr %3, align 8
  br label %9

27:                                               ; preds = %9
  %28 = load ptr, ptr %2, align 8
  %29 = getelementptr inbounds %struct.cli_flagged_sample, ptr %28, i32 0, i32 0
  %30 = load ptr, ptr %29, align 8
  call void @free(ptr noundef %30) #7
  br label %31

31:                                               ; preds = %27, %1
  %32 = load ptr, ptr %2, align 8
  %33 = getelementptr inbounds %struct.cli_flagged_sample, ptr %32, i32 0, i32 4
  %34 = load ptr, ptr %33, align 8
  %35 = icmp ne ptr %34, null
  br i1 %35, label %36, label %52

36:                                               ; preds = %31
  %37 = load ptr, ptr %2, align 8
  %38 = getelementptr inbounds %struct.cli_flagged_sample, ptr %37, i32 0, i32 4
  %39 = load ptr, ptr %38, align 8
  %40 = getelementptr inbounds %struct.cli_stats_sections, ptr %39, i32 0, i32 0
  %41 = load i64, ptr %40, align 8
  %42 = icmp ne i64 %41, 0
  br i1 %42, label %43, label %52

43:                                               ; preds = %36
  %44 = load ptr, ptr %2, align 8
  %45 = getelementptr inbounds %struct.cli_flagged_sample, ptr %44, i32 0, i32 4
  %46 = load ptr, ptr %45, align 8
  %47 = getelementptr inbounds %struct.cli_stats_sections, ptr %46, i32 0, i32 1
  %48 = load ptr, ptr %47, align 8
  call void @free(ptr noundef %48) #7
  %49 = load ptr, ptr %2, align 8
  %50 = getelementptr inbounds %struct.cli_flagged_sample, ptr %49, i32 0, i32 4
  %51 = load ptr, ptr %50, align 8
  call void @free(ptr noundef %51) #7
  br label %52

52:                                               ; preds = %43, %36, %31
  %53 = load ptr, ptr %2, align 8
  call void @free(ptr noundef %53) #7
  ret void
}