; Function Attrs: nounwind uwtable
define void @free_sample(ptr noundef captures(none) %0) local_unnamed_addr #0 {
  %2 = load ptr, ptr %0, align 8
  %.not = icmp eq ptr %2, null
  br i1 %.not, label %9, label %.preheader

.preheader:                                       ; preds = %1
  %3 = load ptr, ptr %2, align 8
  %.not1316 = icmp eq ptr %3, null
  br i1 %.not1316, label %._crit_edge, label %.lr.ph

.lr.ph:                                           ; preds = %.preheader, %.lr.ph
  %4 = phi ptr [ %8, %.lr.ph ], [ %3, %.preheader ]
  %.017 = phi i64 [ %5, %.lr.ph ], [ 0, %.preheader ]
  tail call void @free(ptr noundef nonnull %4) #13
  %5 = add i64 %.017, 1
  %6 = load ptr, ptr %0, align 8
  %7 = getelementptr inbounds ptr, ptr %6, i64 %5
  %8 = load ptr, ptr %7, align 8
  %.not13 = icmp eq ptr %8, null
  br i1 %.not13, label %._crit_edge, label %.lr.ph

._crit_edge:                                      ; preds = %.lr.ph, %.preheader
  %.lcssa = phi ptr [ %2, %.preheader ], [ %6, %.lr.ph ]
  tail call void @free(ptr noundef nonnull %.lcssa) #13
  br label %9

9:                                                ; preds = %._crit_edge, %1
  %10 = getelementptr inbounds nuw i8, ptr %0, i64 32
  %11 = load ptr, ptr %10, align 8
  %.not14 = icmp eq ptr %11, null
  br i1 %.not14, label %18, label %12

12:                                               ; preds = %9
  %13 = load i64, ptr %11, align 8
  %.not15 = icmp eq i64 %13, 0
  br i1 %.not15, label %18, label %14

14:                                               ; preds = %12
  %15 = getelementptr inbounds nuw i8, ptr %11, i64 8
  %16 = load ptr, ptr %15, align 8
  tail call void @free(ptr noundef %16) #13
  %17 = load ptr, ptr %10, align 8
  tail call void @free(ptr noundef %17) #13
  br label %18

18:                                               ; preds = %14, %12, %9
  tail call void @free(ptr noundef nonnull %0) #13
  ret void
}